(lp0
(S'elfflags'
p1
ccopy_reg
_reconstructor
p2
(cino.utils
SpaceList
p3
c__builtin__
list
p4
(lp5
S'-Os'
p6
aS'-Wl,--gc-sections'
p7
aS'-mmcu=atmega328p'
p8
atp9
Rp10
tp11
a(S'cc'
p12
S'/Applications/Arduino.app/Contents/Resources/Java/hardware/tools/avr/bin/avr-gcc'
p13
tp14
a(S'arduino_libraries_dir'
p15
S'/Applications/Arduino.app/Contents/Resources/Java/libraries'
p16
tp17
a(S'avrdude'
p18
S'/Applications/Arduino.app/Contents/Resources/Java/hardware/tools/avr/bin/avrdude'
p19
tp20
a(S'ar'
p21
S'/Applications/Arduino.app/Contents/Resources/Java/hardware/tools/avr/bin/avr-ar'
p22
tp23
a(S'names'
p24
(dp25
S'cpp'
p26
S'%s.cpp'
p27
sS'obj'
p28
S'%s.o'
p29
sS'deps'
p30
S'%s.d'
p31
sS'lib'
p32
S'lib%s.a'
p33
stp34
a(S'arduino_lib_version'
p35
g2
(cino.environment
Version
p36
c__builtin__
tuple
p37
(I1
I0
tp38
tp39
Rp40
tp41
a(S'objcopy'
p42
S'/Applications/Arduino.app/Contents/Resources/Java/hardware/tools/avr/bin/avr-objcopy'
p43
tp44
a(S'board_models'
p45
cino.environment
BoardModels
p46
((lp47
(lp48
S'uno'
p49
a(dp50
S'bootloader'
p51
(dp52
S'extended_fuses'
p53
S'0x05'
p54
sS'high_fuses'
p55
S'0xde'
p56
sS'low_fuses'
p57
S'0xff'
p58
sS'lock_bits'
p59
S'0x0F'
p60
sS'file'
p61
S'optiboot_atmega328.hex'
p62
sS'path'
p63
S'optiboot'
p64
sS'unlock_bits'
p65
S'0x3F'
p66
ssS'upload'
p67
(dp68
S'speed'
p69
S'115200'
p70
sS'maximum_size'
p71
S'32256'
p72
sS'protocol'
p73
S'arduino'
p74
ssS'name'
p75
S'Arduino Uno'
p76
sS'build'
p77
(dp78
S'core'
p79
S'arduino'
p80
sS'mcu'
p81
S'atmega328p'
p82
sS'f_cpu'
p83
S'16000000L'
p84
sS'variant'
p85
S'standard'
p86
ssaa(lp87
S'atmega328'
p88
a(dp89
S'bootloader'
p90
(dp91
S'extended_fuses'
p92
S'0x05'
p93
sS'high_fuses'
p94
S'0xDA'
p95
sS'low_fuses'
p96
S'0xFF'
p97
sS'lock_bits'
p98
S'0x0F'
p99
sS'file'
p100
S'ATmegaBOOT_168_atmega328.hex'
p101
sS'path'
p102
S'atmega'
p103
sS'unlock_bits'
p104
S'0x3F'
p105
ssS'upload'
p106
(dp107
S'speed'
p108
S'57600'
p109
sS'maximum_size'
p110
S'30720'
p111
sS'protocol'
p112
S'arduino'
p113
ssS'name'
p114
S'Arduino Duemilanove w/ ATmega328'
p115
sS'build'
p116
(dp117
S'core'
p118
S'arduino'
p119
sS'mcu'
p120
S'atmega328p'
p121
sS'f_cpu'
p122
S'16000000L'
p123
sS'variant'
p124
S'standard'
p125
ssaa(lp126
S'diecimila'
p127
a(dp128
S'bootloader'
p129
(dp130
S'extended_fuses'
p131
S'0x00'
p132
sS'high_fuses'
p133
S'0xdd'
p134
sS'low_fuses'
p135
S'0xff'
p136
sS'lock_bits'
p137
S'0x0F'
p138
sS'file'
p139
S'ATmegaBOOT_168_diecimila.hex'
p140
sS'path'
p141
S'atmega'
p142
sS'unlock_bits'
p143
S'0x3F'
p144
ssS'upload'
p145
(dp146
S'speed'
p147
S'19200'
p148
sS'maximum_size'
p149
S'14336'
p150
sS'protocol'
p151
S'arduino'
p152
ssS'name'
p153
S'Arduino Diecimila or Duemilanove w/ ATmega168'
p154
sS'build'
p155
(dp156
S'core'
p157
S'arduino'
p158
sS'mcu'
p159
S'atmega168'
p160
sS'f_cpu'
p161
S'16000000L'
p162
sS'variant'
p163
S'standard'
p164
ssaa(lp165
S'nano328'
p166
a(dp167
S'bootloader'
p168
(dp169
S'extended_fuses'
p170
S'0x05'
p171
sS'high_fuses'
p172
S'0xDA'
p173
sS'low_fuses'
p174
S'0xFF'
p175
sS'lock_bits'
p176
S'0x0F'
p177
sS'file'
p178
S'ATmegaBOOT_168_atmega328.hex'
p179
sS'path'
p180
S'atmega'
p181
sS'unlock_bits'
p182
S'0x3F'
p183
ssS'upload'
p184
(dp185
S'speed'
p186
S'57600'
p187
sS'maximum_size'
p188
S'30720'
p189
sS'protocol'
p190
S'arduino'
p191
ssS'name'
p192
S'Arduino Nano w/ ATmega328'
p193
sS'build'
p194
(dp195
S'core'
p196
S'arduino'
p197
sS'mcu'
p198
S'atmega328p'
p199
sS'f_cpu'
p200
S'16000000L'
p201
sS'variant'
p202
S'eightanaloginputs'
p203
ssaa(lp204
S'nano'
p205
a(dp206
S'bootloader'
p207
(dp208
S'extended_fuses'
p209
S'0x00'
p210
sS'high_fuses'
p211
S'0xdd'
p212
sS'low_fuses'
p213
S'0xff'
p214
sS'lock_bits'
p215
S'0x0F'
p216
sS'file'
p217
S'ATmegaBOOT_168_diecimila.hex'
p218
sS'path'
p219
S'atmega'
p220
sS'unlock_bits'
p221
S'0x3F'
p222
ssS'upload'
p223
(dp224
S'speed'
p225
S'19200'
p226
sS'maximum_size'
p227
S'14336'
p228
sS'protocol'
p229
S'arduino'
p230
ssS'name'
p231
S'Arduino Nano w/ ATmega168'
p232
sS'build'
p233
(dp234
S'core'
p235
S'arduino'
p236
sS'mcu'
p237
S'atmega168'
p238
sS'f_cpu'
p239
S'16000000L'
p240
sS'variant'
p241
S'eightanaloginputs'
p242
ssaa(lp243
S'mega2560'
p244
a(dp245
S'bootloader'
p246
(dp247
S'extended_fuses'
p248
S'0xFD'
p249
sS'high_fuses'
p250
S'0xD8'
p251
sS'low_fuses'
p252
S'0xFF'
p253
sS'lock_bits'
p254
S'0x0F'
p255
sS'file'
p256
S'stk500boot_v2_mega2560.hex'
p257
sS'path'
p258
S'stk500v2'
p259
sS'unlock_bits'
p260
S'0x3F'
p261
ssS'upload'
p262
(dp263
S'speed'
p264
S'115200'
p265
sS'maximum_size'
p266
S'258048'
p267
sS'protocol'
p268
S'wiring'
p269
ssS'name'
p270
S'Arduino Mega 2560 or Mega ADK'
p271
sS'build'
p272
(dp273
S'core'
p274
S'arduino'
p275
sS'mcu'
p276
S'atmega2560'
p277
sS'f_cpu'
p278
S'16000000L'
p279
sS'variant'
p280
S'mega'
p281
ssaa(lp282
S'mega'
p283
a(dp284
S'bootloader'
p285
(dp286
S'extended_fuses'
p287
S'0xF5'
p288
sS'high_fuses'
p289
S'0xDA'
p290
sS'low_fuses'
p291
S'0xFF'
p292
sS'lock_bits'
p293
S'0x0F'
p294
sS'file'
p295
S'ATmegaBOOT_168_atmega1280.hex'
p296
sS'path'
p297
S'atmega'
p298
sS'unlock_bits'
p299
S'0x3F'
p300
ssS'upload'
p301
(dp302
S'speed'
p303
S'57600'
p304
sS'maximum_size'
p305
S'126976'
p306
sS'protocol'
p307
S'arduino'
p308
ssS'name'
p309
S'Arduino Mega (ATmega1280)'
p310
sS'build'
p311
(dp312
S'core'
p313
S'arduino'
p314
sS'mcu'
p315
S'atmega1280'
p316
sS'f_cpu'
p317
S'16000000L'
p318
sS'variant'
p319
S'mega'
p320
ssaa(lp321
S'leonardo'
p322
a(dp323
S'bootloader'
p324
(dp325
S'extended_fuses'
p326
S'0xcb'
p327
sS'high_fuses'
p328
S'0xd8'
p329
sS'low_fuses'
p330
S'0xff'
p331
sS'lock_bits'
p332
S'0x2F'
p333
sS'file'
p334
S'Caterina-Leonardo.hex'
p335
sS'path'
p336
S'caterina'
p337
sS'unlock_bits'
p338
S'0x3F'
p339
ssS'upload'
p340
(dp341
S'speed'
p342
S'57600'
p343
sS'maximum_size'
p344
S'28672'
p345
sS'protocol'
p346
S'avr109'
p347
sS'disable_flushing'
p348
S'true'
p349
ssS'name'
p350
S'Arduino Leonardo'
p351
sS'build'
p352
(dp353
S'core'
p354
S'arduino'
p355
sS'f_cpu'
p356
S'16000000L'
p357
sS'vid'
p358
S'0x2341'
p359
sS'pid'
p360
S'0x8036'
p361
sS'variant'
p362
S'leonardo'
p363
sS'mcu'
p364
S'atmega32u4'
p365
ssaa(lp366
S'esplora'
p367
a(dp368
S'bootloader'
p369
(dp370
S'extended_fuses'
p371
S'0xcb'
p372
sS'high_fuses'
p373
S'0xd8'
p374
sS'low_fuses'
p375
S'0xff'
p376
sS'lock_bits'
p377
S'0x2F'
p378
sS'file'
p379
S'Caterina-Esplora.hex'
p380
sS'path'
p381
S'caterina'
p382
sS'unlock_bits'
p383
S'0x3F'
p384
ssS'upload'
p385
(dp386
S'speed'
p387
S'57600'
p388
sS'maximum_size'
p389
S'28672'
p390
sS'protocol'
p391
S'avr109'
p392
sS'disable_flushing'
p393
S'true'
p394
ssS'name'
p395
S'Arduino Esplora'
p396
sS'build'
p397
(dp398
S'core'
p399
S'arduino'
p400
sS'f_cpu'
p401
S'16000000L'
p402
sS'vid'
p403
S'0x2341'
p404
sS'pid'
p405
S'0x803C'
p406
sS'variant'
p407
S'leonardo'
p408
sS'mcu'
p409
S'atmega32u4'
p410
ssaa(lp411
S'micro'
p412
a(dp413
S'bootloader'
p414
(dp415
S'extended_fuses'
p416
S'0xcb'
p417
sS'high_fuses'
p418
S'0xd8'
p419
sS'low_fuses'
p420
S'0xff'
p421
sS'lock_bits'
p422
S'0x2F'
p423
sS'file'
p424
S'Caterina-Micro.hex'
p425
sS'path'
p426
S'caterina'
p427
sS'unlock_bits'
p428
S'0x3F'
p429
ssS'upload'
p430
(dp431
S'speed'
p432
S'57600'
p433
sS'maximum_size'
p434
S'28672'
p435
sS'protocol'
p436
S'avr109'
p437
sS'disable_flushing'
p438
S'true'
p439
ssS'name'
p440
S'Arduino Micro'
p441
sS'build'
p442
(dp443
S'core'
p444
S'arduino'
p445
sS'f_cpu'
p446
S'16000000L'
p447
sS'vid'
p448
S'0x2341'
p449
sS'pid'
p450
S'0x8037'
p451
sS'variant'
p452
S'micro'
p453
sS'mcu'
p454
S'atmega32u4'
p455
ssaa(lp456
S'mini328'
p457
a(dp458
S'bootloader'
p459
(dp460
S'extended_fuses'
p461
S'0x05'
p462
sS'high_fuses'
p463
S'0xd8'
p464
sS'low_fuses'
p465
S'0xff'
p466
sS'lock_bits'
p467
S'0x0F'
p468
sS'file'
p469
S'optiboot_atmega328-Mini.hex'
p470
sS'path'
p471
S'optiboot'
p472
sS'unlock_bits'
p473
S'0x3F'
p474
ssS'upload'
p475
(dp476
S'speed'
p477
S'115200'
p478
sS'maximum_size'
p479
S'28672'
p480
sS'protocol'
p481
S'arduino'
p482
ssS'name'
p483
S'Arduino Mini w/ ATmega328'
p484
sS'build'
p485
(dp486
S'core'
p487
S'arduino'
p488
sS'mcu'
p489
S'atmega328p'
p490
sS'f_cpu'
p491
S'16000000L'
p492
sS'variant'
p493
S'eightanaloginputs'
p494
ssaa(lp495
S'mini'
p496
a(dp497
S'bootloader'
p498
(dp499
S'extended_fuses'
p500
S'0x00'
p501
sS'high_fuses'
p502
S'0xdd'
p503
sS'low_fuses'
p504
S'0xff'
p505
sS'lock_bits'
p506
S'0x0F'
p507
sS'file'
p508
S'ATmegaBOOT_168_ng.hex'
p509
sS'path'
p510
S'atmega'
p511
sS'unlock_bits'
p512
S'0x3F'
p513
ssS'upload'
p514
(dp515
S'speed'
p516
S'19200'
p517
sS'maximum_size'
p518
S'14336'
p519
sS'protocol'
p520
S'arduino'
p521
ssS'name'
p522
S'Arduino Mini w/ ATmega168'
p523
sS'build'
p524
(dp525
S'core'
p526
S'arduino'
p527
sS'mcu'
p528
S'atmega168'
p529
sS'f_cpu'
p530
S'16000000L'
p531
sS'variant'
p532
S'eightanaloginputs'
p533
ssaa(lp534
S'ethernet'
p535
a(dp536
S'bootloader'
p537
(dp538
S'extended_fuses'
p539
S'0x05'
p540
sS'high_fuses'
p541
S'0xde'
p542
sS'low_fuses'
p543
S'0xff'
p544
sS'lock_bits'
p545
S'0x0F'
p546
sS'file'
p547
S'optiboot_atmega328.hex'
p548
sS'path'
p549
S'optiboot'
p550
sS'unlock_bits'
p551
S'0x3F'
p552
ssS'upload'
p553
(dp554
S'speed'
p555
S'115200'
p556
sS'maximum_size'
p557
S'32256'
p558
sS'protocol'
p559
S'arduino'
p560
ssS'name'
p561
S'Arduino Ethernet'
p562
sS'build'
p563
(dp564
S'f_cpu'
p565
S'16000000L'
p566
sS'mcu'
p567
S'atmega328p'
p568
sS'variant'
p569
S'standard'
p570
sS'core'
p571
S'arduino'
p572
ssaa(lp573
S'fio'
p574
a(dp575
S'bootloader'
p576
(dp577
S'extended_fuses'
p578
S'0x05'
p579
sS'high_fuses'
p580
S'0xDA'
p581
sS'low_fuses'
p582
S'0xFF'
p583
sS'lock_bits'
p584
S'0x0F'
p585
sS'file'
p586
S'ATmegaBOOT_168_atmega328_pro_8MHz.hex'
p587
sS'path'
p588
S'arduino:atmega'
p589
sS'unlock_bits'
p590
S'0x3F'
p591
ssS'upload'
p592
(dp593
S'speed'
p594
S'57600'
p595
sS'maximum_size'
p596
S'30720'
p597
sS'protocol'
p598
S'arduino'
p599
ssS'name'
p600
S'Arduino Fio'
p601
sS'build'
p602
(dp603
S'core'
p604
S'arduino'
p605
sS'mcu'
p606
S'atmega328p'
p607
sS'f_cpu'
p608
S'8000000L'
p609
sS'variant'
p610
S'eightanaloginputs'
p611
ssaa(lp612
S'bt328'
p613
a(dp614
S'bootloader'
p615
(dp616
S'extended_fuses'
p617
S'0x05'
p618
sS'high_fuses'
p619
S'0xd8'
p620
sS'low_fuses'
p621
S'0xff'
p622
sS'lock_bits'
p623
S'0x0F'
p624
sS'file'
p625
S'ATmegaBOOT_168_atmega328_bt.hex'
p626
sS'path'
p627
S'bt'
p628
sS'unlock_bits'
p629
S'0x3F'
p630
ssS'upload'
p631
(dp632
S'speed'
p633
S'19200'
p634
sS'maximum_size'
p635
S'28672'
p636
sS'protocol'
p637
S'arduino'
p638
sS'disable_flushing'
p639
S'true'
p640
ssS'name'
p641
S'Arduino BT w/ ATmega328'
p642
sS'build'
p643
(dp644
S'core'
p645
S'arduino'
p646
sS'mcu'
p647
S'atmega328p'
p648
sS'f_cpu'
p649
S'16000000L'
p650
sS'variant'
p651
S'eightanaloginputs'
p652
ssaa(lp653
S'bt'
p654
a(dp655
S'bootloader'
p656
(dp657
S'extended_fuses'
p658
S'0x00'
p659
sS'high_fuses'
p660
S'0xdd'
p661
sS'low_fuses'
p662
S'0xff'
p663
sS'lock_bits'
p664
S'0x0F'
p665
sS'file'
p666
S'ATmegaBOOT_168.hex'
p667
sS'path'
p668
S'bt'
p669
sS'unlock_bits'
p670
S'0x3F'
p671
ssS'upload'
p672
(dp673
S'speed'
p674
S'19200'
p675
sS'maximum_size'
p676
S'14336'
p677
sS'protocol'
p678
S'arduino'
p679
sS'disable_flushing'
p680
S'true'
p681
ssS'name'
p682
S'Arduino BT w/ ATmega168'
p683
sS'build'
p684
(dp685
S'core'
p686
S'arduino'
p687
sS'mcu'
p688
S'atmega168'
p689
sS'f_cpu'
p690
S'16000000L'
p691
sS'variant'
p692
S'eightanaloginputs'
p693
ssaa(lp694
S'LilyPadUSB'
p695
a(dp696
S'bootloader'
p697
(dp698
S'extended_fuses'
p699
S'0xce'
p700
sS'high_fuses'
p701
S'0xd8'
p702
sS'low_fuses'
p703
S'0xff'
p704
sS'lock_bits'
p705
S'0x2F'
p706
sS'file'
p707
S'Caterina-LilyPadUSB.hex'
p708
sS'path'
p709
S'caterina-LilyPadUSB'
p710
sS'unlock_bits'
p711
S'0x3F'
p712
ssS'upload'
p713
(dp714
S'speed'
p715
S'57600'
p716
sS'maximum_size'
p717
S'28672'
p718
sS'protocol'
p719
S'avr109'
p720
sS'disable_flushing'
p721
S'true'
p722
ssS'name'
p723
S'LilyPad Arduino USB'
p724
sS'build'
p725
(dp726
S'core'
p727
S'arduino'
p728
sS'f_cpu'
p729
S'8000000L'
p730
sS'vid'
p731
S'0x1B4F'
p732
sS'pid'
p733
S'0x9208'
p734
sS'variant'
p735
S'leonardo'
p736
sS'mcu'
p737
S'atmega32u4'
p738
ssaa(lp739
S'lilypad328'
p740
a(dp741
S'bootloader'
p742
(dp743
S'extended_fuses'
p744
S'0x05'
p745
sS'high_fuses'
p746
S'0xDA'
p747
sS'low_fuses'
p748
S'0xFF'
p749
sS'lock_bits'
p750
S'0x0F'
p751
sS'file'
p752
S'ATmegaBOOT_168_atmega328_pro_8MHz.hex'
p753
sS'path'
p754
S'atmega'
p755
sS'unlock_bits'
p756
S'0x3F'
p757
ssS'upload'
p758
(dp759
S'speed'
p760
S'57600'
p761
sS'maximum_size'
p762
S'30720'
p763
sS'protocol'
p764
S'arduino'
p765
ssS'name'
p766
S'LilyPad Arduino w/ ATmega328'
p767
sS'build'
p768
(dp769
S'core'
p770
S'arduino'
p771
sS'mcu'
p772
S'atmega328p'
p773
sS'f_cpu'
p774
S'8000000L'
p775
sS'variant'
p776
S'standard'
p777
ssaa(lp778
S'lilypad'
p779
a(dp780
S'bootloader'
p781
(dp782
S'extended_fuses'
p783
S'0x00'
p784
sS'high_fuses'
p785
S'0xdd'
p786
sS'low_fuses'
p787
S'0xe2'
p788
sS'lock_bits'
p789
S'0x0F'
p790
sS'file'
p791
S'LilyPadBOOT_168.hex'
p792
sS'path'
p793
S'lilypad'
p794
sS'unlock_bits'
p795
S'0x3F'
p796
ssS'upload'
p797
(dp798
S'speed'
p799
S'19200'
p800
sS'maximum_size'
p801
S'14336'
p802
sS'protocol'
p803
S'arduino'
p804
ssS'name'
p805
S'LilyPad Arduino w/ ATmega168'
p806
sS'build'
p807
(dp808
S'core'
p809
S'arduino'
p810
sS'mcu'
p811
S'atmega168'
p812
sS'f_cpu'
p813
S'8000000L'
p814
sS'variant'
p815
S'standard'
p816
ssaa(lp817
S'pro5v328'
p818
a(dp819
S'bootloader'
p820
(dp821
S'extended_fuses'
p822
S'0x05'
p823
sS'high_fuses'
p824
S'0xDA'
p825
sS'low_fuses'
p826
S'0xFF'
p827
sS'lock_bits'
p828
S'0x0F'
p829
sS'file'
p830
S'ATmegaBOOT_168_atmega328.hex'
p831
sS'path'
p832
S'atmega'
p833
sS'unlock_bits'
p834
S'0x3F'
p835
ssS'upload'
p836
(dp837
S'speed'
p838
S'57600'
p839
sS'maximum_size'
p840
S'30720'
p841
sS'protocol'
p842
S'arduino'
p843
ssS'name'
p844
S'Arduino Pro or Pro Mini (5V, 16 MHz) w/ ATmega328'
p845
sS'build'
p846
(dp847
S'core'
p848
S'arduino'
p849
sS'mcu'
p850
S'atmega328p'
p851
sS'f_cpu'
p852
S'16000000L'
p853
sS'variant'
p854
S'standard'
p855
ssaa(lp856
S'pro5v'
p857
a(dp858
S'bootloader'
p859
(dp860
S'extended_fuses'
p861
S'0x00'
p862
sS'high_fuses'
p863
S'0xdd'
p864
sS'low_fuses'
p865
S'0xff'
p866
sS'lock_bits'
p867
S'0x0F'
p868
sS'file'
p869
S'ATmegaBOOT_168_diecimila.hex'
p870
sS'path'
p871
S'atmega'
p872
sS'unlock_bits'
p873
S'0x3F'
p874
ssS'upload'
p875
(dp876
S'speed'
p877
S'19200'
p878
sS'maximum_size'
p879
S'14336'
p880
sS'protocol'
p881
S'arduino'
p882
ssS'name'
p883
S'Arduino Pro or Pro Mini (5V, 16 MHz) w/ ATmega168'
p884
sS'build'
p885
(dp886
S'core'
p887
S'arduino'
p888
sS'mcu'
p889
S'atmega168'
p890
sS'f_cpu'
p891
S'16000000L'
p892
sS'variant'
p893
S'standard'
p894
ssaa(lp895
S'pro328'
p896
a(dp897
S'bootloader'
p898
(dp899
S'extended_fuses'
p900
S'0x05'
p901
sS'high_fuses'
p902
S'0xDA'
p903
sS'low_fuses'
p904
S'0xFF'
p905
sS'lock_bits'
p906
S'0x0F'
p907
sS'file'
p908
S'ATmegaBOOT_168_atmega328_pro_8MHz.hex'
p909
sS'path'
p910
S'atmega'
p911
sS'unlock_bits'
p912
S'0x3F'
p913
ssS'upload'
p914
(dp915
S'speed'
p916
S'57600'
p917
sS'maximum_size'
p918
S'30720'
p919
sS'protocol'
p920
S'arduino'
p921
ssS'name'
p922
S'Arduino Pro or Pro Mini (3.3V, 8 MHz) w/ ATmega328'
p923
sS'build'
p924
(dp925
S'core'
p926
S'arduino'
p927
sS'mcu'
p928
S'atmega328p'
p929
sS'f_cpu'
p930
S'8000000L'
p931
sS'variant'
p932
S'standard'
p933
ssaa(lp934
S'pro'
p935
a(dp936
S'bootloader'
p937
(dp938
S'extended_fuses'
p939
S'0x00'
p940
sS'high_fuses'
p941
S'0xdd'
p942
sS'low_fuses'
p943
S'0xc6'
p944
sS'lock_bits'
p945
S'0x0F'
p946
sS'file'
p947
S'ATmegaBOOT_168_pro_8MHz.hex'
p948
sS'path'
p949
S'atmega'
p950
sS'unlock_bits'
p951
S'0x3F'
p952
ssS'upload'
p953
(dp954
S'speed'
p955
S'19200'
p956
sS'maximum_size'
p957
S'14336'
p958
sS'protocol'
p959
S'arduino'
p960
ssS'name'
p961
S'Arduino Pro or Pro Mini (3.3V, 8 MHz) w/ ATmega168'
p962
sS'build'
p963
(dp964
S'core'
p965
S'arduino'
p966
sS'mcu'
p967
S'atmega168'
p968
sS'f_cpu'
p969
S'8000000L'
p970
sS'variant'
p971
S'standard'
p972
ssaa(lp973
S'atmega168'
p974
a(dp975
S'bootloader'
p976
(dp977
S'extended_fuses'
p978
S'0x00'
p979
sS'high_fuses'
p980
S'0xdd'
p981
sS'low_fuses'
p982
S'0xff'
p983
sS'lock_bits'
p984
S'0x0F'
p985
sS'file'
p986
S'ATmegaBOOT_168_ng.hex'
p987
sS'path'
p988
S'atmega'
p989
sS'unlock_bits'
p990
S'0x3F'
p991
ssS'upload'
p992
(dp993
S'speed'
p994
S'19200'
p995
sS'maximum_size'
p996
S'14336'
p997
sS'protocol'
p998
S'arduino'
p999
ssS'name'
p1000
S'Arduino NG or older w/ ATmega168'
p1001
sS'build'
p1002
(dp1003
S'core'
p1004
S'arduino'
p1005
sS'mcu'
p1006
S'atmega168'
p1007
sS'f_cpu'
p1008
S'16000000L'
p1009
sS'variant'
p1010
S'standard'
p1011
ssaa(lp1012
S'atmega8'
p1013
a(dp1014
S'bootloader'
p1015
(dp1016
S'high_fuses'
p1017
S'0xca'
p1018
sS'low_fuses'
p1019
S'0xdf'
p1020
sS'lock_bits'
p1021
S'0x0F'
p1022
sS'file'
p1023
S'ATmegaBOOT-prod-firmware-2009-11-07.hex'
p1024
sS'path'
p1025
S'atmega8'
p1026
sS'unlock_bits'
p1027
S'0x3F'
p1028
ssS'upload'
p1029
(dp1030
S'speed'
p1031
S'19200'
p1032
sS'maximum_size'
p1033
S'7168'
p1034
sS'protocol'
p1035
S'arduino'
p1036
ssS'name'
p1037
S'Arduino NG or older w/ ATmega8'
p1038
sS'build'
p1039
(dp1040
S'core'
p1041
S'arduino'
p1042
sS'mcu'
p1043
S'atmega8'
p1044
sS'f_cpu'
p1045
S'16000000L'
p1046
sS'variant'
p1047
S'standard'
p1048
ssaatp1049
Rp1050
(dp1051
S'default'
p1052
S'uno'
p1053
sbtp1054
a(S'used_libs'
p1055
(lp1056
S'lib/EasyTransferI2C'
p1057
aS'lib/ReactionPlayer'
p1058
aS'/Applications/Arduino.app/Contents/Resources/Java/libraries/Wire'
p1059
aS'lib/ButtonPlayer'
p1060
aS'/Applications/Arduino.app/Contents/Resources/Java/hardware/arduino/cores/arduino'
p1061
atp1062
a(S'build_dir'
p1063
S'.build/uno'
p1064
tp1065
a(S'cxx'
p1066
S'/Applications/Arduino.app/Contents/Resources/Java/hardware/tools/avr/bin/avr-g++'
p1067
tp1068
a(S'cflags'
p1069
g2
(g3
g4
(lp1070
g8
aS'-ffunction-sections'
p1071
aS'-fdata-sections'
p1072
aS'-g'
p1073
ag6
aS'-w'
p1074
aS'-DF_CPU=16000000L'
p1075
aS'-DARDUINO=100'
p1076
aS'-I/Applications/Arduino.app/Contents/Resources/Java/hardware/arduino/cores/arduino'
p1077
aS'-I/Applications/Arduino.app/Contents/Resources/Java/hardware/arduino/variants/standard'
p1078
aS'-Ilib/EasyTransferI2C'
p1079
aS'-Ilib/EasyTransferI2C/Examples'
p1080
aS'-Ilib/EasyTransferI2C/Examples/EasyTransfer_RX_Example'
p1081
aS'-Ilib/EasyTransferI2C/Examples/EasyTransfer_TX_Example'
p1082
aS'-Ilib/ReactionPlayer'
p1083
aS'-I/Applications/Arduino.app/Contents/Resources/Java/libraries/Wire'
p1084
aS'-I/Applications/Arduino.app/Contents/Resources/Java/libraries/Wire/utility'
p1085
aS'-Ilib/ButtonPlayer'
p1086
aS'-I/Applications/Arduino.app/Contents/Resources/Java/hardware/arduino/cores/arduino'
p1087
atp1088
Rp1089
tp1090
a(S'cxxflags'
p1091
g2
(g3
g4
(lp1092
S'-fno-exceptions'
p1093
atp1094
Rp1095
tp1096
a(S'arduino_variants_dir'
p1097
S'/Applications/Arduino.app/Contents/Resources/Java/hardware/arduino/variants'
p1098
tp1099
a(S'serial'
p1100
S'/opt/local/bin/picocom'
p1101
tp1102
a(S'stty'
p1103
S'/bin/stty'
p1104
tp1105
a(S'version.txt'
p1106
S'/Applications/Arduino.app/Contents/Resources/Java/lib/version.txt'
p1107
tp1108
a(S'arduino_core_dir'
p1109
g1061
tp1110
a(S'boards.txt'
p1111
S'/Applications/Arduino.app/Contents/Resources/Java/hardware/arduino/boards.txt'
p1112
tp1113
a(S'avrdude.conf'
p1114
S'/Applications/Arduino.app/Contents/Resources/Java/hardware/tools/avr/etc/avrdude.conf'
p1115
tp1116
a(S'deps'
p1117
g2
(g3
g4
(lp1118
S'.build/uno/src/dependencies.d'
p1119
aS'.build/uno/arduino/dependencies.d'
p1120
aS'.build/uno/EasyTransferI2C/dependencies.d'
p1121
aS'.build/uno/ButtonPlayer/dependencies.d'
p1122
aS'.build/uno/ReactionPlayer/dependencies.d'
p1123
aS'.build/uno/Wire/dependencies.d'
p1124
atp1125
Rp1126
tp1127
a.